target datalayout = "e-m:e-p270:32:32-p271:32:32-p272:64:64-i64:64-i128:128-f80:128-n8:16:32:64-S128"
target triple = "x86_64-pc-linux-gnu"

; Function Attrs: inlinehint mustprogress nounwind uwtable
define internal void @_ZN4ncnnL17interpolate_cubicEfPf(float noundef nofpclass(nan inf) %0, ptr noundef %1) #1 {
  %3 = alloca float, align 4
  %4 = alloca ptr, align 8
  %5 = alloca float, align 4
  %6 = alloca float, align 4
  %7 = alloca float, align 4
  %8 = alloca float, align 4
  store float %0, ptr %3, align 4, !tbaa !49
  store ptr %1, ptr %4, align 8, !tbaa !51
  call void @llvm.lifetime.start.p0(i64 4, ptr %5) #8
  store float -7.500000e-01, ptr %5, align 4, !tbaa !49
  call void @llvm.lifetime.start.p0(i64 4, ptr %6) #8
  %9 = load float, ptr %3, align 4, !tbaa !49
  %10 = fadd fast float %9, 1.000000e+00
  store float %10, ptr %6, align 4, !tbaa !49
  call void @llvm.lifetime.start.p0(i64 4, ptr %7) #8
  %11 = load float, ptr %3, align 4, !tbaa !49
  store float %11, ptr %7, align 4, !tbaa !49
  call void @llvm.lifetime.start.p0(i64 4, ptr %8) #8
  %12 = load float, ptr %3, align 4, !tbaa !49
  %13 = fsub fast float 1.000000e+00, %12
  store float %13, ptr %8, align 4, !tbaa !49
  %14 = load float, ptr %6, align 4, !tbaa !49
  %15 = fmul fast float -7.500000e-01, %14
  %16 = load float, ptr %6, align 4, !tbaa !49
  %17 = fmul fast float %15, %16
  %18 = load float, ptr %6, align 4, !tbaa !49
  %19 = fmul fast float %17, %18
  %20 = load float, ptr %6, align 4, !tbaa !49
  %21 = fmul fast float -3.750000e+00, %20
  %22 = load float, ptr %6, align 4, !tbaa !49
  %23 = fmul fast float %21, %22
  %24 = fsub fast float %19, %23
  %25 = load float, ptr %6, align 4, !tbaa !49
  %26 = fmul fast float -6.000000e+00, %25
  %27 = fadd fast float %24, %26
  %28 = fsub fast float %27, -3.000000e+00
  %29 = load ptr, ptr %4, align 8, !tbaa !51
  %30 = getelementptr inbounds float, ptr %29, i64 0
  store float %28, ptr %30, align 4, !tbaa !49
  %31 = load float, ptr %7, align 4, !tbaa !49
  %32 = fmul fast float 1.250000e+00, %31
  %33 = load float, ptr %7, align 4, !tbaa !49
  %34 = fmul fast float %32, %33
  %35 = load float, ptr %7, align 4, !tbaa !49
  %36 = fmul fast float %34, %35
  %37 = load float, ptr %7, align 4, !tbaa !49
  %38 = fmul fast float 2.250000e+00, %37
  %39 = load float, ptr %7, align 4, !tbaa !49
  %40 = fmul fast float %38, %39
  %41 = fsub fast float %36, %40
  %42 = fadd fast float %41, 1.000000e+00
  %43 = load ptr, ptr %4, align 8, !tbaa !51
  %44 = getelementptr inbounds float, ptr %43, i64 1
  store float %42, ptr %44, align 4, !tbaa !49
  %45 = load float, ptr %8, align 4, !tbaa !49
  %46 = fmul fast float 1.250000e+00, %45
  %47 = load float, ptr %8, align 4, !tbaa !49
  %48 = fmul fast float %46, %47
  %49 = load float, ptr %8, align 4, !tbaa !49
  %50 = fmul fast float %48, %49
  %51 = load float, ptr %8, align 4, !tbaa !49
  %52 = fmul fast float 2.250000e+00, %51
  %53 = load float, ptr %8, align 4, !tbaa !49
  %54 = fmul fast float %52, %53
  %55 = fsub fast float %50, %54
  %56 = fadd fast float %55, 1.000000e+00
  %57 = load ptr, ptr %4, align 8, !tbaa !51
  %58 = getelementptr inbounds float, ptr %57, i64 2
  store float %56, ptr %58, align 4, !tbaa !49
  %59 = load ptr, ptr %4, align 8, !tbaa !51
  %60 = getelementptr inbounds float, ptr %59, i64 0
  %61 = load float, ptr %60, align 4, !tbaa !49
  %62 = fsub fast float 1.000000e+00, %61
  %63 = load ptr, ptr %4, align 8, !tbaa !51
  %64 = getelementptr inbounds float, ptr %63, i64 1
  %65 = load float, ptr %64, align 4, !tbaa !49
  %66 = fsub fast float %62, %65
  %67 = load ptr, ptr %4, align 8, !tbaa !51
  %68 = getelementptr inbounds float, ptr %67, i64 2
  %69 = load float, ptr %68, align 4, !tbaa !49
  %70 = fsub fast float %66, %69
  %71 = load ptr, ptr %4, align 8, !tbaa !51
  %72 = getelementptr inbounds float, ptr %71, i64 3
  store float %70, ptr %72, align 4, !tbaa !49
  call void @llvm.lifetime.end.p0(i64 4, ptr %8) #8
  call void @llvm.lifetime.end.p0(i64 4, ptr %7) #8
  call void @llvm.lifetime.end.p0(i64 4, ptr %6) #8
  call void @llvm.lifetime.end.p0(i64 4, ptr %5) #8
  ret void
}

; Function Attrs: inlinehint mustprogress nounwind uwtable
define linkonce_odr noundef nofpclass(nan inf) float @_ZSt5floorf(float noundef nofpclass(nan inf) %0) #1 comdat {
  %2 = alloca float, align 4
  store float %0, ptr %2, align 4, !tbaa !49
  %3 = load float, ptr %2, align 4, !tbaa !49
  %4 = call fast float @llvm.floor.f32(float %3)
  ret float %4
}

; Function Attrs: mustprogress uwtable
define internal void @_ZN4ncnnL12cubic_coeffsEiiPiPfi(i32 noundef %0, i32 noundef %1, ptr noundef %2, ptr noundef %3, i32 noundef %4) #3 {
  %6 = alloca i32, align 4
  %7 = alloca i32, align 4
  %8 = alloca ptr, align 8
  %9 = alloca ptr, align 8
  %10 = alloca i32, align 4
  %11 = alloca double, align 8
  %12 = alloca i32, align 4
  %13 = alloca float, align 4
  %14 = alloca i32, align 4
  store i32 %0, ptr %6, align 4, !tbaa !21
  store i32 %1, ptr %7, align 4, !tbaa !21
  store ptr %2, ptr %8, align 8, !tbaa !50
  store ptr %3, ptr %9, align 8, !tbaa !51
  store i32 %4, ptr %10, align 4, !tbaa !21
  call void @llvm.lifetime.start.p0(i64 8, ptr %11) #8
  %15 = load i32, ptr %6, align 4, !tbaa !21
  %16 = sitofp i32 %15 to double
  %17 = load i32, ptr %7, align 4, !tbaa !21
  %18 = sitofp i32 %17 to double
  %19 = fdiv fast double %16, %18
  store double %19, ptr %11, align 8, !tbaa !73
  %20 = load i32, ptr %10, align 4, !tbaa !21
  %21 = icmp ne i32 %20, 0
  br i1 %21, label %22, label %30

22:                                               ; preds = %5
  %23 = load i32, ptr %6, align 4, !tbaa !21
  %24 = sub nsw i32 %23, 1
  %25 = sitofp i32 %24 to double
  %26 = load i32, ptr %7, align 4, !tbaa !21
  %27 = sub nsw i32 %26, 1
  %28 = sitofp i32 %27 to double
  %29 = fdiv fast double %25, %28
  store double %29, ptr %11, align 8, !tbaa !73
  br label %30

30:                                               ; preds = %22, %5
  call void @llvm.lifetime.start.p0(i64 4, ptr %12) #8
  store i32 0, ptr %12, align 4, !tbaa !21
  br label %31

31:                                               ; preds = %279, %30
  %32 = load i32, ptr %12, align 4, !tbaa !21
  %33 = load i32, ptr %7, align 4, !tbaa !21
  %34 = icmp slt i32 %32, %33
  br i1 %34, label %36, label %35

35:                                               ; preds = %31
  call void @llvm.lifetime.end.p0(i64 4, ptr %12) #8
  br label %282

36:                                               ; preds = %31
  call void @llvm.lifetime.start.p0(i64 4, ptr %13) #8
  %37 = load i32, ptr %12, align 4, !tbaa !21
  %38 = sitofp i32 %37 to double
  %39 = fadd fast double %38, 5.000000e-01
  %40 = load double, ptr %11, align 8, !tbaa !73
  %41 = fmul fast double %39, %40
  %42 = fsub fast double %41, 5.000000e-01
  %43 = fptrunc fast double %42 to float
  store float %43, ptr %13, align 4, !tbaa !49
  %44 = load i32, ptr %10, align 4, !tbaa !21
  %45 = icmp ne i32 %44, 0
  br i1 %45, label %46, label %52

46:                                               ; preds = %36
  %47 = load i32, ptr %12, align 4, !tbaa !21
  %48 = sitofp i32 %47 to double
  %49 = load double, ptr %11, align 8, !tbaa !73
  %50 = fmul fast double %48, %49
  %51 = fptrunc fast double %50 to float
  store float %51, ptr %13, align 4, !tbaa !49
  br label %52

52:                                               ; preds = %46, %36
  call void @llvm.lifetime.start.p0(i64 4, ptr %14) #8
  %53 = load float, ptr %13, align 4, !tbaa !49
  %54 = call fast noundef nofpclass(nan inf) float @_ZSt5floorf(float noundef nofpclass(nan inf) %53)
  %55 = fptosi float %54 to i32
  store i32 %55, ptr %14, align 4, !tbaa !21
  %56 = load i32, ptr %14, align 4, !tbaa !21
  %57 = sitofp i32 %56 to float
  %58 = load float, ptr %13, align 4, !tbaa !49
  %59 = fsub fast float %58, %57
  store float %59, ptr %13, align 4, !tbaa !49
  %60 = load float, ptr %13, align 4, !tbaa !49
  %61 = load ptr, ptr %9, align 8, !tbaa !51
  %62 = load i32, ptr %12, align 4, !tbaa !21
  %63 = mul nsw i32 %62, 4
  %64 = sext i32 %63 to i64
  %65 = getelementptr inbounds float, ptr %61, i64 %64
  call void @_ZN4ncnnL17interpolate_cubicEfPf(float noundef nofpclass(nan inf) %60, ptr noundef %65)
  %66 = load i32, ptr %14, align 4, !tbaa !21
  %67 = icmp sle i32 %66, -1
  br i1 %67, label %68, label %108

68:                                               ; preds = %52
  store i32 1, ptr %14, align 4, !tbaa !21
  %69 = load ptr, ptr %9, align 8, !tbaa !51
  %70 = load i32, ptr %12, align 4, !tbaa !21
  %71 = mul nsw i32 %70, 4
  %72 = add nsw i32 %71, 3
  %73 = sext i32 %72 to i64
  %74 = getelementptr inbounds float, ptr %69, i64 %73
  %75 = load float, ptr %74, align 4, !tbaa !49
  %76 = fsub fast float 1.000000e+00, %75
  %77 = load ptr, ptr %9, align 8, !tbaa !51
  %78 = load i32, ptr %12, align 4, !tbaa !21
  %79 = mul nsw i32 %78, 4
  %80 = add nsw i32 %79, 0
  %81 = sext i32 %80 to i64
  %82 = getelementptr inbounds float, ptr %77, i64 %81
  store float %76, ptr %82, align 4, !tbaa !49
  %83 = load ptr, ptr %9, align 8, !tbaa !51
  %84 = load i32, ptr %12, align 4, !tbaa !21
  %85 = mul nsw i32 %84, 4
  %86 = add nsw i32 %85, 3
  %87 = sext i32 %86 to i64
  %88 = getelementptr inbounds float, ptr %83, i64 %87
  %89 = load float, ptr %88, align 4, !tbaa !49
  %90 = load ptr, ptr %9, align 8, !tbaa !51
  %91 = load i32, ptr %12, align 4, !tbaa !21
  %92 = mul nsw i32 %91, 4
  %93 = add nsw i32 %92, 1
  %94 = sext i32 %93 to i64
  %95 = getelementptr inbounds float, ptr %90, i64 %94
  store float %89, ptr %95, align 4, !tbaa !49
  %96 = load ptr, ptr %9, align 8, !tbaa !51
  %97 = load i32, ptr %12, align 4, !tbaa !21
  %98 = mul nsw i32 %97, 4
  %99 = add nsw i32 %98, 2
  %100 = sext i32 %99 to i64
  %101 = getelementptr inbounds float, ptr %96, i64 %100
  store float 0.000000e+00, ptr %101, align 4, !tbaa !49
  %102 = load ptr, ptr %9, align 8, !tbaa !51
  %103 = load i32, ptr %12, align 4, !tbaa !21
  %104 = mul nsw i32 %103, 4
  %105 = add nsw i32 %104, 3
  %106 = sext i32 %105 to i64
  %107 = getelementptr inbounds float, ptr %102, i64 %106
  store float 0.000000e+00, ptr %107, align 4, !tbaa !49
  br label %108

108:                                              ; preds = %68, %52
  %109 = load i32, ptr %14, align 4, !tbaa !21
  %110 = icmp eq i32 %109, 0
  br i1 %110, label %111, label %165

111:                                              ; preds = %108
  store i32 1, ptr %14, align 4, !tbaa !21
  %112 = load ptr, ptr %9, align 8, !tbaa !51
  %113 = load i32, ptr %12, align 4, !tbaa !21
  %114 = mul nsw i32 %113, 4
  %115 = add nsw i32 %114, 0
  %116 = sext i32 %115 to i64
  %117 = getelementptr inbounds float, ptr %112, i64 %116
  %118 = load float, ptr %117, align 4, !tbaa !49
  %119 = load ptr, ptr %9, align 8, !tbaa !51
  %120 = load i32, ptr %12, align 4, !tbaa !21
  %121 = mul nsw i32 %120, 4
  %122 = add nsw i32 %121, 1
  %123 = sext i32 %122 to i64
  %124 = getelementptr inbounds float, ptr %119, i64 %123
  %125 = load float, ptr %124, align 4, !tbaa !49
  %126 = fadd fast float %118, %125
  %127 = load ptr, ptr %9, align 8, !tbaa !51
  %128 = load i32, ptr %12, align 4, !tbaa !21
  %129 = mul nsw i32 %128, 4
  %130 = add nsw i32 %129, 0
  %131 = sext i32 %130 to i64
  %132 = getelementptr inbounds float, ptr %127, i64 %131
  store float %126, ptr %132, align 4, !tbaa !49
  %133 = load ptr, ptr %9, align 8, !tbaa !51
  %134 = load i32, ptr %12, align 4, !tbaa !21
  %135 = mul nsw i32 %134, 4
  %136 = add nsw i32 %135, 2
  %137 = sext i32 %136 to i64
  %138 = getelementptr inbounds float, ptr %133, i64 %137
  %139 = load float, ptr %138, align 4, !tbaa !49
  %140 = load ptr, ptr %9, align 8, !tbaa !51
  %141 = load i32, ptr %12, align 4, !tbaa !21
  %142 = mul nsw i32 %141, 4
  %143 = add nsw i32 %142, 1
  %144 = sext i32 %143 to i64
  %145 = getelementptr inbounds float, ptr %140, i64 %144
  store float %139, ptr %145, align 4, !tbaa !49
  %146 = load ptr, ptr %9, align 8, !tbaa !51
  %147 = load i32, ptr %12, align 4, !tbaa !21
  %148 = mul nsw i32 %147, 4
  %149 = add nsw i32 %148, 3
  %150 = sext i32 %149 to i64
  %151 = getelementptr inbounds float, ptr %146, i64 %150
  %152 = load float, ptr %151, align 4, !tbaa !49
  %153 = load ptr, ptr %9, align 8, !tbaa !51
  %154 = load i32, ptr %12, align 4, !tbaa !21
  %155 = mul nsw i32 %154, 4
  %156 = add nsw i32 %155, 2
  %157 = sext i32 %156 to i64
  %158 = getelementptr inbounds float, ptr %153, i64 %157
  store float %152, ptr %158, align 4, !tbaa !49
  %159 = load ptr, ptr %9, align 8, !tbaa !51
  %160 = load i32, ptr %12, align 4, !tbaa !21
  %161 = mul nsw i32 %160, 4
  %162 = add nsw i32 %161, 3
  %163 = sext i32 %162 to i64
  %164 = getelementptr inbounds float, ptr %159, i64 %163
  store float 0.000000e+00, ptr %164, align 4, !tbaa !49
  br label %165

165:                                              ; preds = %111, %108
  %166 = load i32, ptr %14, align 4, !tbaa !21
  %167 = load i32, ptr %6, align 4, !tbaa !21
  %168 = sub nsw i32 %167, 2
  %169 = icmp eq i32 %166, %168
  br i1 %169, label %170, label %226

170:                                              ; preds = %165
  %171 = load i32, ptr %6, align 4, !tbaa !21
  %172 = sub nsw i32 %171, 3
  store i32 %172, ptr %14, align 4, !tbaa !21
  %173 = load ptr, ptr %9, align 8, !tbaa !51
  %174 = load i32, ptr %12, align 4, !tbaa !21
  %175 = mul nsw i32 %174, 4
  %176 = add nsw i32 %175, 2
  %177 = sext i32 %176 to i64
  %178 = getelementptr inbounds float, ptr %173, i64 %177
  %179 = load float, ptr %178, align 4, !tbaa !49
  %180 = load ptr, ptr %9, align 8, !tbaa !51
  %181 = load i32, ptr %12, align 4, !tbaa !21
  %182 = mul nsw i32 %181, 4
  %183 = add nsw i32 %182, 3
  %184 = sext i32 %183 to i64
  %185 = getelementptr inbounds float, ptr %180, i64 %184
  %186 = load float, ptr %185, align 4, !tbaa !49
  %187 = fadd fast float %179, %186
  %188 = load ptr, ptr %9, align 8, !tbaa !51
  %189 = load i32, ptr %12, align 4, !tbaa !21
  %190 = mul nsw i32 %189, 4
  %191 = add nsw i32 %190, 3
  %192 = sext i32 %191 to i64
  %193 = getelementptr inbounds float, ptr %188, i64 %192
  store float %187, ptr %193, align 4, !tbaa !49
  %194 = load ptr, ptr %9, align 8, !tbaa !51
  %195 = load i32, ptr %12, align 4, !tbaa !21
  %196 = mul nsw i32 %195, 4
  %197 = add nsw i32 %196, 1
  %198 = sext i32 %197 to i64
  %199 = getelementptr inbounds float, ptr %194, i64 %198
  %200 = load float, ptr %199, align 4, !tbaa !49
  %201 = load ptr, ptr %9, align 8, !tbaa !51
  %202 = load i32, ptr %12, align 4, !tbaa !21
  %203 = mul nsw i32 %202, 4
  %204 = add nsw i32 %203, 2
  %205 = sext i32 %204 to i64
  %206 = getelementptr inbounds float, ptr %201, i64 %205
  store float %200, ptr %206, align 4, !tbaa !49
  %207 = load ptr, ptr %9, align 8, !tbaa !51
  %208 = load i32, ptr %12, align 4, !tbaa !21
  %209 = mul nsw i32 %208, 4
  %210 = add nsw i32 %209, 0
  %211 = sext i32 %210 to i64
  %212 = getelementptr inbounds float, ptr %207, i64 %211
  %213 = load float, ptr %212, align 4, !tbaa !49
  %214 = load ptr, ptr %9, align 8, !tbaa !51
  %215 = load i32, ptr %12, align 4, !tbaa !21
  %216 = mul nsw i32 %215, 4
  %217 = add nsw i32 %216, 1
  %218 = sext i32 %217 to i64
  %219 = getelementptr inbounds float, ptr %214, i64 %218
  store float %213, ptr %219, align 4, !tbaa !49
  %220 = load ptr, ptr %9, align 8, !tbaa !51
  %221 = load i32, ptr %12, align 4, !tbaa !21
  %222 = mul nsw i32 %221, 4
  %223 = add nsw i32 %222, 0
  %224 = sext i32 %223 to i64
  %225 = getelementptr inbounds float, ptr %220, i64 %224
  store float 0.000000e+00, ptr %225, align 4, !tbaa !49
  br label %226

226:                                              ; preds = %170, %165
  %227 = load i32, ptr %14, align 4, !tbaa !21
  %228 = load i32, ptr %6, align 4, !tbaa !21
  %229 = sub nsw i32 %228, 1
  %230 = icmp sge i32 %227, %229
  br i1 %230, label %231, label %273

231:                                              ; preds = %226
  %232 = load i32, ptr %6, align 4, !tbaa !21
  %233 = sub nsw i32 %232, 3
  store i32 %233, ptr %14, align 4, !tbaa !21
  %234 = load ptr, ptr %9, align 8, !tbaa !51
  %235 = load i32, ptr %12, align 4, !tbaa !21
  %236 = mul nsw i32 %235, 4
  %237 = add nsw i32 %236, 0
  %238 = sext i32 %237 to i64
  %239 = getelementptr inbounds float, ptr %234, i64 %238
  %240 = load float, ptr %239, align 4, !tbaa !49
  %241 = fsub fast float 1.000000e+00, %240
  %242 = load ptr, ptr %9, align 8, !tbaa !51
  %243 = load i32, ptr %12, align 4, !tbaa !21
  %244 = mul nsw i32 %243, 4
  %245 = add nsw i32 %244, 3
  %246 = sext i32 %245 to i64
  %247 = getelementptr inbounds float, ptr %242, i64 %246
  store float %241, ptr %247, align 4, !tbaa !49
  %248 = load ptr, ptr %9, align 8, !tbaa !51
  %249 = load i32, ptr %12, align 4, !tbaa !21
  %250 = mul nsw i32 %249, 4
  %251 = add nsw i32 %250, 0
  %252 = sext i32 %251 to i64
  %253 = getelementptr inbounds float, ptr %248, i64 %252
  %254 = load float, ptr %253, align 4, !tbaa !49
  %255 = load ptr, ptr %9, align 8, !tbaa !51
  %256 = load i32, ptr %12, align 4, !tbaa !21
  %257 = mul nsw i32 %256, 4
  %258 = add nsw i32 %257, 2
  %259 = sext i32 %258 to i64
  %260 = getelementptr inbounds float, ptr %255, i64 %259
  store float %254, ptr %260, align 4, !tbaa !49
  %261 = load ptr, ptr %9, align 8, !tbaa !51
  %262 = load i32, ptr %12, align 4, !tbaa !21
  %263 = mul nsw i32 %262, 4
  %264 = add nsw i32 %263, 1
  %265 = sext i32 %264 to i64
  %266 = getelementptr inbounds float, ptr %261, i64 %265
  store float 0.000000e+00, ptr %266, align 4, !tbaa !49
  %267 = load ptr, ptr %9, align 8, !tbaa !51
  %268 = load i32, ptr %12, align 4, !tbaa !21
  %269 = mul nsw i32 %268, 4
  %270 = add nsw i32 %269, 0
  %271 = sext i32 %270 to i64
  %272 = getelementptr inbounds float, ptr %267, i64 %271
  store float 0.000000e+00, ptr %272, align 4, !tbaa !49
  br label %273

273:                                              ; preds = %231, %226
  %274 = load i32, ptr %14, align 4, !tbaa !21
  %275 = load ptr, ptr %8, align 8, !tbaa !50
  %276 = load i32, ptr %12, align 4, !tbaa !21
  %277 = sext i32 %276 to i64
  %278 = getelementptr inbounds i32, ptr %275, i64 %277
  store i32 %274, ptr %278, align 4, !tbaa !21
  call void @llvm.lifetime.end.p0(i64 4, ptr %14) #8
  call void @llvm.lifetime.end.p0(i64 4, ptr %13) #8
  br label %279

279:                                              ; preds = %273
  %280 = load i32, ptr %12, align 4, !tbaa !21
  %281 = add nsw i32 %280, 1
  store i32 %281, ptr %12, align 4, !tbaa !21
  br label %31, !llvm.loop !83

282:                                              ; preds = %35
  call void @llvm.lifetime.end.p0(i64 8, ptr %11) #8
  ret void
}